target datalayout = "e-m:e-p270:32:32-p271:32:32-p272:64:64-i64:64-i128:128-f80:128-n8:16:32:64-S128"
target triple = "x86_64-pc-linux-gnu"

%struct.kern_pair_ref_t = type { i32, i32 }

; Function Attrs: nounwind uwtable
define internal i32 @kern_pair_16_compare(ptr noundef %0, ptr noundef %1) #0 {
  %3 = alloca i32, align 4
  %4 = alloca ptr, align 8
  %5 = alloca ptr, align 8
  %6 = alloca ptr, align 8
  %7 = alloca ptr, align 8
  %8 = alloca i32, align 4
  store ptr %0, ptr %4, align 8, !tbaa !3
  store ptr %1, ptr %5, align 8, !tbaa !3
  call void @llvm.lifetime.start.p0(i64 8, ptr %6) #3
  %9 = load ptr, ptr %4, align 8, !tbaa !3
  store ptr %9, ptr %6, align 8, !tbaa !3
  call void @llvm.lifetime.start.p0(i64 8, ptr %7) #3
  %10 = load ptr, ptr %5, align 8, !tbaa !3
  store ptr %10, ptr %7, align 8, !tbaa !3
  %11 = load ptr, ptr %6, align 8, !tbaa !3
  %12 = getelementptr inbounds nuw %struct.kern_pair_ref_t, ptr %11, i32 0, i32 0
  %13 = load i32, ptr %12, align 4, !tbaa !60
  %14 = load ptr, ptr %7, align 8, !tbaa !3
  %15 = getelementptr inbounds i16, ptr %14, i64 0
  %16 = load i16, ptr %15, align 2, !tbaa !45
  %17 = zext i16 %16 to i32
  %18 = icmp ne i32 %13, %17
  br i1 %18, label %19, label %28

19:                                               ; preds = %2
  %20 = load ptr, ptr %6, align 8, !tbaa !3
  %21 = getelementptr inbounds nuw %struct.kern_pair_ref_t, ptr %20, i32 0, i32 0
  %22 = load i32, ptr %21, align 4, !tbaa !60
  %23 = load ptr, ptr %7, align 8, !tbaa !3
  %24 = getelementptr inbounds i16, ptr %23, i64 0
  %25 = load i16, ptr %24, align 2, !tbaa !45
  %26 = zext i16 %25 to i32
  %27 = sub i32 %22, %26
  store i32 %27, ptr %3, align 4
  store i32 1, ptr %8, align 4
  br label %37

28:                                               ; preds = %2
  %29 = load ptr, ptr %6, align 8, !tbaa !3
  %30 = getelementptr inbounds nuw %struct.kern_pair_ref_t, ptr %29, i32 0, i32 1
  %31 = load i32, ptr %30, align 4, !tbaa !62
  %32 = load ptr, ptr %7, align 8, !tbaa !3
  %33 = getelementptr inbounds i16, ptr %32, i64 1
  %34 = load i16, ptr %33, align 2, !tbaa !45
  %35 = zext i16 %34 to i32
  %36 = sub i32 %31, %35
  store i32 %36, ptr %3, align 4
  store i32 1, ptr %8, align 4
  br label %37

37:                                               ; preds = %28, %19
  call void @llvm.lifetime.end.p0(i64 8, ptr %7) #3
  call void @llvm.lifetime.end.p0(i64 8, ptr %6) #3
  %38 = load i32, ptr %3, align 4
  ret i32 %38
}